; Function Attrs: nofree norecurse nosync nounwind memory(write, argmem: read, inaccessiblemem: none) uwtable
define noundef nonnull ptr @Dau_DsdComputeMatches(ptr noundef readonly captures(none) %0) local_unnamed_addr #0 {
  %2 = alloca [12 x i32], align 16
  call void @llvm.lifetime.start.p0(i64 48, ptr nonnull %2) #29
  %3 = load i8, ptr %0, align 1, !tbaa !3
  %.not25 = icmp eq i8 %3, 0
  br i1 %.not25, label %._crit_edge, label %.lr.ph

.lr.ph:                                           ; preds = %1, %20
  %indvars.iv = phi i64 [ %indvars.iv.next, %20 ], [ 0, %1 ]
  %.027 = phi i32 [ %.1, %20 ], [ 0, %1 ]
  %4 = getelementptr inbounds nuw i8, ptr %0, i64 %indvars.iv
  %5 = getelementptr inbounds nuw [2000 x i32], ptr @Dau_DsdComputeMatches.pMatches, i64 0, i64 %indvars.iv
  store i32 0, ptr %5, align 4, !tbaa !6
  %6 = load i8, ptr %4, align 1, !tbaa !3
  switch i8 %6, label %20 [
    i8 40, label %7
    i8 91, label %7
    i8 60, label %7
    i8 123, label %7
    i8 41, label %12
    i8 93, label %12
    i8 62, label %12
    i8 125, label %12
  ]

7:                                                ; preds = %.lr.ph, %.lr.ph, %.lr.ph, %.lr.ph
  %8 = add nsw i32 %.027, 1
  %9 = sext i32 %.027 to i64
  %10 = getelementptr inbounds [12 x i32], ptr %2, i64 0, i64 %9
  %11 = trunc nuw nsw i64 %indvars.iv to i32
  store i32 %11, ptr %10, align 4, !tbaa !6
  br label %20

12:                                               ; preds = %.lr.ph, %.lr.ph, %.lr.ph, %.lr.ph
  %13 = add nsw i32 %.027, -1
  %14 = sext i32 %13 to i64
  %15 = getelementptr inbounds [12 x i32], ptr %2, i64 0, i64 %14
  %16 = load i32, ptr %15, align 4, !tbaa !6
  %17 = sext i32 %16 to i64
  %18 = getelementptr inbounds [2000 x i32], ptr @Dau_DsdComputeMatches.pMatches, i64 0, i64 %17
  %19 = trunc nuw nsw i64 %indvars.iv to i32
  store i32 %19, ptr %18, align 4, !tbaa !6
  br label %20

20:                                               ; preds = %.lr.ph, %7, %12
  %.1 = phi i32 [ %8, %7 ], [ %13, %12 ], [ %.027, %.lr.ph ]
  %indvars.iv.next = add nuw nsw i64 %indvars.iv, 1
  %21 = getelementptr inbounds nuw i8, ptr %0, i64 %indvars.iv.next
  %22 = load i8, ptr %21, align 1, !tbaa !3
  %.not = icmp eq i8 %22, 0
  br i1 %.not, label %._crit_edge, label %.lr.ph, !llvm.loop !8

._crit_edge:                                      ; preds = %20, %1
  call void @llvm.lifetime.end.p0(i64 48, ptr nonnull %2) #29
  ret ptr @Dau_DsdComputeMatches.pMatches
}